target datalayout = "e-m:e-p270:32:32-p271:32:32-p272:64:64-i64:64-i128:128-f80:128-n8:16:32:64-S128"
target triple = "x86_64-pc-linux-gnu"

%struct.H5E_msg_t = type { i8, ptr, i32, ptr }

@H5E_ERROR_g = global i64 -1, align 8
@H5E_CANTREMOVE_g = global i64 -1, align 8
@H5E_CANTCLOSEOBJ_g = global i64 -1, align 8
@H5E_init_g = external global i8, align 1
@H5_libterm_g = external global i8, align 1
@.str.1 = private unnamed_addr constant [100 x i8] c"generated/home/dtcxzyw/WorkSpace/Projects/compilers/llvm-opt-benchmark/bench/hdf5/hdf5/src/H5Eint.c\00", align 1
@__func__.H5E__close_msg_cb = private unnamed_addr constant [18 x i8] c"H5E__close_msg_cb\00", align 1
@.str.19 = private unnamed_addr constant [30 x i8] c"unable to close error message\00", align 1
@.str.20 = private unnamed_addr constant [31 x i8] c"unable to remove error message\00", align 1
@H5_H5E_msg_t_reg_free_list = internal global { i8, [3 x i8], i32, i32, [4 x i8], ptr, i64, ptr } { i8 0, [3 x i8] zeroinitializer, i32 0, i32 0, [4 x i8] zeroinitializer, ptr @.str.386, i64 32, ptr null }, align 8

; Function Attrs: nounwind uwtable
define internal void @H5E__free_msg(ptr noundef %0) #0 {
  %2 = alloca ptr, align 8
  store ptr %0, ptr %2, align 8, !tbaa !39
  %3 = load i8, ptr @H5E_init_g, align 1, !tbaa !7, !range !9, !noundef !10
  %4 = trunc i8 %3 to i1
  br i1 %4, label %9, label %5

5:                                                ; preds = %1
  %6 = load i8, ptr @H5_libterm_g, align 1, !tbaa !7, !range !9, !noundef !10
  %7 = trunc i8 %6 to i1
  %8 = xor i1 %7, true
  br label %9

9:                                                ; preds = %5, %1
  %10 = phi i1 [ true, %1 ], [ %8, %5 ]
  %11 = xor i1 %10, true
  %12 = xor i1 %11, true
  %13 = zext i1 %12 to i32
  %14 = sext i32 %13 to i64
  %15 = call i64 @llvm.expect.i64(i64 %14, i64 1)
  %16 = icmp ne i64 %15, 0
  br i1 %16, label %17, label %26

17:                                               ; preds = %9
  %18 = load ptr, ptr %2, align 8, !tbaa !39
  %19 = getelementptr inbounds nuw %struct.H5E_msg_t, ptr %18, i32 0, i32 1
  %20 = load ptr, ptr %19, align 8, !tbaa !45
  %21 = call ptr @H5MM_xfree_const(ptr noundef %20)
  %22 = load ptr, ptr %2, align 8, !tbaa !39
  %23 = getelementptr inbounds nuw %struct.H5E_msg_t, ptr %22, i32 0, i32 1
  store ptr %21, ptr %23, align 8, !tbaa !45
  %24 = load ptr, ptr %2, align 8, !tbaa !39
  %25 = call ptr @H5FL_reg_free(ptr noundef @H5_H5E_msg_t_reg_free_list, ptr noundef %24)
  store ptr %25, ptr %2, align 8, !tbaa !39
  br label %26

26:                                               ; preds = %17, %9
  ret void
}

; Function Attrs: nounwind uwtable
define internal i32 @H5E__close_msg(ptr noundef %0, ptr noundef %1) #0 {
  %3 = alloca ptr, align 8
  %4 = alloca ptr, align 8
  store ptr %0, ptr %3, align 8, !tbaa !39
  store ptr %1, ptr %4, align 8, !tbaa !49
  %5 = load i8, ptr @H5E_init_g, align 1, !tbaa !7, !range !9, !noundef !10
  %6 = trunc i8 %5 to i1
  br i1 %6, label %11, label %7

7:                                                ; preds = %2
  %8 = load i8, ptr @H5_libterm_g, align 1, !tbaa !7, !range !9, !noundef !10
  %9 = trunc i8 %8 to i1
  %10 = xor i1 %9, true
  br label %11

11:                                               ; preds = %7, %2
  %12 = phi i1 [ true, %2 ], [ %10, %7 ]
  %13 = xor i1 %12, true
  %14 = xor i1 %13, true
  %15 = zext i1 %14 to i32
  %16 = sext i32 %15 to i64
  %17 = call i64 @llvm.expect.i64(i64 %16, i64 1)
  %18 = icmp ne i64 %17, 0
  br i1 %18, label %19, label %27

19:                                               ; preds = %11
  %20 = load ptr, ptr %3, align 8, !tbaa !39
  %21 = getelementptr inbounds nuw %struct.H5E_msg_t, ptr %20, i32 0, i32 0
  %22 = load i8, ptr %21, align 8, !tbaa !41, !range !9, !noundef !10
  %23 = trunc i8 %22 to i1
  br i1 %23, label %24, label %26

24:                                               ; preds = %19
  %25 = load ptr, ptr %3, align 8, !tbaa !39
  call void @H5E__free_msg(ptr noundef %25)
  br label %26

26:                                               ; preds = %24, %19
  br label %27

27:                                               ; preds = %26, %11
  ret i32 0
}

; Function Attrs: nounwind uwtable
define internal i32 @H5E__close_msg_cb(ptr noundef %0, i64 noundef %1, ptr noundef %2) #0 {
  %4 = alloca ptr, align 8
  %5 = alloca i64, align 8
  %6 = alloca ptr, align 8
  %7 = alloca ptr, align 8
  %8 = alloca ptr, align 8
  %9 = alloca i32, align 4
  %10 = alloca i8, align 1
  store ptr %0, ptr %4, align 8, !tbaa !49
  store i64 %1, ptr %5, align 8, !tbaa !11
  store ptr %2, ptr %6, align 8, !tbaa !49
  call void @llvm.lifetime.start.p0(i64 8, ptr %7) #9
  %11 = load ptr, ptr %4, align 8, !tbaa !49
  store ptr %11, ptr %7, align 8, !tbaa !39
  call void @llvm.lifetime.start.p0(i64 8, ptr %8) #9
  %12 = load ptr, ptr %6, align 8, !tbaa !49
  store ptr %12, ptr %8, align 8, !tbaa !32
  call void @llvm.lifetime.start.p0(i64 4, ptr %9) #9
  store i32 0, ptr %9, align 4, !tbaa !3
  call void @llvm.lifetime.start.p0(i64 1, ptr %10) #9
  store i8 0, ptr %10, align 1, !tbaa !7
  %13 = load i8, ptr @H5E_init_g, align 1, !tbaa !7, !range !9, !noundef !10
  %14 = trunc i8 %13 to i1
  br i1 %14, label %19, label %15

15:                                               ; preds = %3
  %16 = load i8, ptr @H5_libterm_g, align 1, !tbaa !7, !range !9, !noundef !10
  %17 = trunc i8 %16 to i1
  %18 = xor i1 %17, true
  br label %19

19:                                               ; preds = %15, %3
  %20 = phi i1 [ true, %3 ], [ %18, %15 ]
  %21 = xor i1 %20, true
  %22 = xor i1 %21, true
  %23 = zext i1 %22 to i32
  %24 = sext i32 %23 to i64
  %25 = call i64 @llvm.expect.i64(i64 %24, i64 1)
  %26 = icmp ne i64 %25, 0
  br i1 %26, label %27, label %82

27:                                               ; preds = %19
  %28 = load ptr, ptr %7, align 8, !tbaa !39
  %29 = getelementptr inbounds nuw %struct.H5E_msg_t, ptr %28, i32 0, i32 3
  %30 = load ptr, ptr %29, align 8, !tbaa !43
  %31 = load ptr, ptr %8, align 8, !tbaa !32
  %32 = icmp eq ptr %30, %31
  br i1 %32, label %33, label %80

33:                                               ; preds = %27
  %34 = load ptr, ptr %7, align 8, !tbaa !39
  %35 = call i32 @H5E__close_msg(ptr noundef %34, ptr noundef null)
  %36 = icmp slt i32 %35, 0
  br i1 %36, label %37, label %56

37:                                               ; preds = %33
  br label %38

38:                                               ; preds = %37
  br label %39

39:                                               ; preds = %38
  br label %40

40:                                               ; preds = %39
  %41 = load i64, ptr @H5E_ERROR_g, align 8, !tbaa !11
  %42 = load i64, ptr @H5E_CANTCLOSEOBJ_g, align 8, !tbaa !11
  %43 = call i32 (ptr, ptr, i32, i64, i64, ptr, ...) @H5E_printf_stack(ptr noundef @.str.1, ptr noundef @__func__.H5E__close_msg_cb, i32 noundef 603, i64 noundef %41, i64 noundef %42, ptr noundef @.str.19)
  br label %44

44:                                               ; preds = %40
  br label %45

45:                                               ; preds = %44
  store i8 1, ptr %10, align 1, !tbaa !7
  %46 = load i8, ptr %10, align 1, !tbaa !7, !range !9, !noundef !10
  %47 = trunc i8 %46 to i1
  %48 = zext i1 %47 to i8
  store i8 %48, ptr %10, align 1, !tbaa !7
  br label %49

49:                                               ; preds = %45
  br label %50

50:                                               ; preds = %49
  br label %51

51:                                               ; preds = %50
  store i32 -1, ptr %9, align 4, !tbaa !3
  br label %81

52:                                               ; No predecessors!
  br label %53

53:                                               ; preds = %52
  br label %54

54:                                               ; preds = %53
  br label %55

55:                                               ; preds = %54
  br label %56

56:                                               ; preds = %55, %33
  %57 = load i64, ptr %5, align 8, !tbaa !11
  %58 = call ptr @H5I_remove(i64 noundef %57)
  %59 = icmp eq ptr null, %58
  br i1 %59, label %60, label %79

60:                                               ; preds = %56
  br label %61

61:                                               ; preds = %60
  br label %62

62:                                               ; preds = %61
  br label %63

63:                                               ; preds = %62
  %64 = load i64, ptr @H5E_ERROR_g, align 8, !tbaa !11
  %65 = load i64, ptr @H5E_CANTREMOVE_g, align 8, !tbaa !11
  %66 = call i32 (ptr, ptr, i32, i64, i64, ptr, ...) @H5E_printf_stack(ptr noundef @.str.1, ptr noundef @__func__.H5E__close_msg_cb, i32 noundef 605, i64 noundef %64, i64 noundef %65, ptr noundef @.str.20)
  br label %67

67:                                               ; preds = %63
  br label %68

68:                                               ; preds = %67
  store i8 1, ptr %10, align 1, !tbaa !7
  %69 = load i8, ptr %10, align 1, !tbaa !7, !range !9, !noundef !10
  %70 = trunc i8 %69 to i1
  %71 = zext i1 %70 to i8
  store i8 %71, ptr %10, align 1, !tbaa !7
  br label %72

72:                                               ; preds = %68
  br label %73

73:                                               ; preds = %72
  br label %74

74:                                               ; preds = %73
  store i32 -1, ptr %9, align 4, !tbaa !3
  br label %81

75:                                               ; No predecessors!
  br label %76

76:                                               ; preds = %75
  br label %77

77:                                               ; preds = %76
  br label %78

78:                                               ; preds = %77
  br label %79

79:                                               ; preds = %78, %56
  br label %80

80:                                               ; preds = %79, %27
  br label %81

81:                                               ; preds = %80, %74, %51
  br label %82

82:                                               ; preds = %81, %19
  %83 = load i32, ptr %9, align 4, !tbaa !3
  call void @llvm.lifetime.end.p0(i64 1, ptr %10) #9
  call void @llvm.lifetime.end.p0(i64 4, ptr %9) #9
  call void @llvm.lifetime.end.p0(i64 8, ptr %8) #9
  call void @llvm.lifetime.end.p0(i64 8, ptr %7) #9
  ret i32 %83
}