; Function Attrs: nounwind uwtable
define internal range(i32 -1, 1) i32 @H5E__close_msg_cb(ptr noundef %0, i64 noundef %1, ptr noundef readnone captures(address) %2) #0 {
  %4 = load i8, ptr @H5E_init_g, align 1, !tbaa !3, !range !7, !noundef !8
  %5 = trunc nuw i8 %4 to i1
  %6 = load i8, ptr @H5_libterm_g, align 1, !range !7
  %7 = trunc nuw i8 %6 to i1
  %8 = xor i1 %7, true
  %9 = select i1 %5, i1 true, i1 %8
  br i1 %9, label %10, label %27, !prof !9

10:                                               ; preds = %3
  %11 = getelementptr inbounds nuw i8, ptr %0, i64 24
  %12 = load ptr, ptr %11, align 8, !tbaa !46
  %13 = icmp eq ptr %12, %2
  br i1 %13, label %14, label %27

14:                                               ; preds = %10
  %15 = load i8, ptr %0, align 8, !tbaa !43, !range !7, !noundef !8
  %16 = trunc nuw i8 %15 to i1
  br i1 %16, label %H5E__free_msg.exit.i, label %H5E__close_msg.exit

H5E__free_msg.exit.i:                             ; preds = %14
  %17 = getelementptr inbounds nuw i8, ptr %0, i64 8
  %18 = load ptr, ptr %17, align 8, !tbaa !48
  %19 = tail call ptr @H5MM_xfree_const(ptr noundef %18) #16
  store ptr %19, ptr %17, align 8, !tbaa !48
  %20 = tail call ptr @H5FL_reg_free(ptr noundef nonnull @H5_H5E_msg_t_reg_free_list, ptr noundef nonnull %0) #16
  br label %H5E__close_msg.exit

H5E__close_msg.exit:                              ; preds = %14, %H5E__free_msg.exit.i
  %21 = tail call ptr @H5I_remove(i64 noundef %1) #16
  %22 = icmp eq ptr %21, null
  br i1 %22, label %23, label %27

23:                                               ; preds = %H5E__close_msg.exit
  %24 = load i64, ptr @H5E_ERROR_g, align 8, !tbaa !10
  %25 = load i64, ptr @H5E_CANTREMOVE_g, align 8, !tbaa !10
  %26 = tail call i32 (ptr, ptr, i32, i64, i64, ptr, ...) @H5E_printf_stack(ptr noundef nonnull @.str.1, ptr noundef nonnull @__func__.H5E__close_msg_cb, i32 noundef 605, i64 noundef %24, i64 noundef %25, ptr noundef nonnull @.str.20)
  br label %27

27:                                               ; preds = %23, %H5E__close_msg.exit, %10, %3
  %.0 = phi i32 [ -1, %23 ], [ 0, %H5E__close_msg.exit ], [ 0, %10 ], [ 0, %3 ]
  ret i32 %.0
}